; Function Attrs: nounwind uwtable
define range(i32 -23, 1) i32 @CVodeSVtolerances(ptr noundef captures(address_is_null) %0, double noundef %1, ptr noundef %2) local_unnamed_addr #0 {
  %4 = icmp eq ptr %0, null
  br i1 %4, label %5, label %6

5:                                                ; preds = %3
  tail call void (ptr, i32, i32, ptr, ptr, ptr, ...) @cvProcessError(ptr noundef null, i32 noundef -21, i32 noundef 1056, ptr noundef nonnull @__func__.CVodeSVtolerances, ptr noundef nonnull @.str, ptr noundef nonnull @.str.4)
  br label %53

6:                                                ; preds = %3
  %7 = getelementptr inbounds nuw i8, ptr %0, i64 2120
  %8 = load i32, ptr %7, align 8, !tbaa !128
  %9 = icmp eq i32 %8, 0
  br i1 %9, label %10, label %11

10:                                               ; preds = %6
  tail call void (ptr, i32, i32, ptr, ptr, ptr, ...) @cvProcessError(ptr noundef nonnull %0, i32 noundef -23, i32 noundef 1063, ptr noundef nonnull @__func__.CVodeSVtolerances, ptr noundef nonnull @.str, ptr noundef nonnull @.str.10)
  br label %53

11:                                               ; preds = %6
  %12 = fcmp olt double %1, 0.000000e+00
  br i1 %12, label %13, label %14

13:                                               ; preds = %11
  tail call void (ptr, i32, i32, ptr, ptr, ptr, ...) @cvProcessError(ptr noundef nonnull %0, i32 noundef -22, i32 noundef 1072, ptr noundef nonnull @__func__.CVodeSVtolerances, ptr noundef nonnull @.str, ptr noundef nonnull @.str.11)
  br label %53

14:                                               ; preds = %11
  %15 = getelementptr inbounds nuw i8, ptr %2, i64 8
  %16 = load ptr, ptr %15, align 8, !tbaa !77
  %17 = getelementptr inbounds nuw i8, ptr %16, i64 184
  %18 = load ptr, ptr %17, align 8, !tbaa !138
  %19 = icmp eq ptr %18, null
  br i1 %19, label %20, label %21

20:                                               ; preds = %14
  tail call void (ptr, i32, i32, ptr, ptr, ptr, ...) @cvProcessError(ptr noundef nonnull %0, i32 noundef -22, i32 noundef 1079, ptr noundef nonnull @__func__.CVodeSVtolerances, ptr noundef nonnull @.str, ptr noundef nonnull @.str.13)
  br label %53

21:                                               ; preds = %14
  %22 = tail call double @N_VMin(ptr noundef nonnull %2) #13
  %23 = fcmp olt double %22, 0.000000e+00
  br i1 %23, label %24, label %25

24:                                               ; preds = %21
  tail call void (ptr, i32, i32, ptr, ptr, ptr, ...) @cvProcessError(ptr noundef nonnull %0, i32 noundef -22, i32 noundef 1086, ptr noundef nonnull @__func__.CVodeSVtolerances, ptr noundef nonnull @.str, ptr noundef nonnull @.str.12)
  br label %53

25:                                               ; preds = %21
  %26 = getelementptr inbounds nuw i8, ptr %0, i64 2116
  %27 = load i32, ptr %26, align 4, !tbaa !129
  %.not = icmp eq i32 %27, 0
  br i1 %.not, label %28, label %._crit_edge

._crit_edge:                                      ; preds = %25
  %.phi.trans.insert = getelementptr inbounds nuw i8, ptr %0, i64 56
  %.pre = load ptr, ptr %.phi.trans.insert, align 8, !tbaa !130
  br label %43

28:                                               ; preds = %25
  %29 = getelementptr inbounds nuw i8, ptr %0, i64 440
  %30 = load ptr, ptr %29, align 8, !tbaa !72
  %31 = tail call ptr @N_VClone(ptr noundef %30) #13
  %32 = getelementptr inbounds nuw i8, ptr %0, i64 56
  store ptr %31, ptr %32, align 8, !tbaa !130
  %33 = getelementptr inbounds nuw i8, ptr %0, i64 1784
  %34 = load i64, ptr %33, align 8, !tbaa !95
  %35 = getelementptr inbounds nuw i8, ptr %0, i64 1816
  %36 = load i64, ptr %35, align 8, !tbaa !52
  %37 = add nsw i64 %36, %34
  store i64 %37, ptr %35, align 8, !tbaa !52
  %38 = getelementptr inbounds nuw i8, ptr %0, i64 1792
  %39 = load i64, ptr %38, align 8, !tbaa !96
  %40 = getelementptr inbounds nuw i8, ptr %0, i64 1824
  %41 = load i64, ptr %40, align 8, !tbaa !53
  %42 = add nsw i64 %41, %39
  store i64 %42, ptr %40, align 8, !tbaa !53
  store i32 1, ptr %26, align 4, !tbaa !129
  br label %43

43:                                               ; preds = %._crit_edge, %28
  %44 = phi ptr [ %.pre, %._crit_edge ], [ %31, %28 ]
  %45 = getelementptr inbounds nuw i8, ptr %0, i64 40
  store double %1, ptr %45, align 8, !tbaa !66
  tail call void @N_VScale(double noundef 1.000000e+00, ptr noundef nonnull %2, ptr noundef %44) #13
  %46 = fcmp oeq double %22, 0.000000e+00
  %47 = zext i1 %46 to i32
  %48 = getelementptr inbounds nuw i8, ptr %0, i64 64
  store i32 %47, ptr %48, align 8, !tbaa !22
  %49 = getelementptr inbounds nuw i8, ptr %0, i64 36
  store i32 2, ptr %49, align 4, !tbaa !134
  %50 = getelementptr inbounds nuw i8, ptr %0, i64 68
  store i32 0, ptr %50, align 4, !tbaa !135
  %51 = getelementptr inbounds nuw i8, ptr %0, i64 72
  store ptr @cvEwtSet, ptr %51, align 8, !tbaa !136
  %52 = getelementptr inbounds nuw i8, ptr %0, i64 80
  store ptr null, ptr %52, align 8, !tbaa !137
  br label %53

53:                                               ; preds = %43, %24, %20, %13, %10, %5
  %.0 = phi i32 [ -21, %5 ], [ -23, %10 ], [ -22, %13 ], [ -22, %20 ], [ -22, %24 ], [ 0, %43 ]
  ret i32 %.0
}